target datalayout = "e-m:e-p270:32:32-p271:32:32-p272:64:64-i64:64-i128:128-f80:128-n8:16:32:64-S128"
target triple = "x86_64-pc-linux-gnu"

%struct.TCGContext = type { ptr, ptr, ptr, ptr, ptr, i32, i32, i32, i32, i32, i32, i32, i8, i8, i8, i32, i32, i64, i64, i64, ptr, ptr, ptr, ptr, ptr, i64, ptr, ptr, ptr, ptr, %struct.anon, ptr, ptr, ptr, ptr, ptr, [6 x ptr], [6 x %struct.TCGTempSet], [512 x %struct.TCGTemp], %union.anon, %union.anon, %struct.anon.0, ptr, [32 x ptr], [512 x i16], ptr, [1 x %struct.__jmp_buf_tag] }
%struct.anon = type { ptr, ptr }
%struct.TCGTempSet = type { [8 x i64] }
%struct.TCGTemp = type { i64, i64, ptr, i64, ptr, i64, ptr }
%union.anon = type { %struct.QTailQLink }
%struct.QTailQLink = type { ptr, ptr }
%struct.anon.0 = type { ptr, ptr }
%struct.__jmp_buf_tag = type { [8 x i64], i32, %struct.__sigset_t }
%struct.__sigset_t = type { [16 x i64] }

@.str.51 = private unnamed_addr constant [104 x i8] c"/home/dtcxzyw/WorkSpace/Projects/compilers/llvm-opt-benchmark/bench/qemu/qemu/tcg/i386/tcg-target.c.inc\00", align 1
@__func__.tcg_out_sib_offset = private unnamed_addr constant [19 x i8] c"tcg_out_sib_offset\00", align 1

; Function Attrs: alwaysinline nounwind
define internal ptr @memcpy.inline(ptr noalias nonnull %0, ptr noalias nonnull %1, i64 %2) #4 {
  %4 = alloca ptr, align 8
  %5 = alloca ptr, align 8
  %6 = alloca i64, align 8
  store ptr %0, ptr %4, align 8
  store ptr %1, ptr %5, align 8
  store i64 %2, ptr %6, align 8
  %7 = load ptr, ptr %4, align 8
  %8 = load ptr, ptr %5, align 8
  %9 = load i64, ptr %6, align 8
  %10 = load ptr, ptr %4, align 8
  %11 = call i64 @llvm.objectsize.i64.p0(ptr %10, i1 false, i1 true, i1 false)
  %12 = call ptr @__memcpy_chk(ptr noundef %7, ptr noundef %8, i64 noundef %9, i64 noundef %11) #19
  ret ptr %12
}

; Function Attrs: inlinehint nounwind sspstrong uwtable
define internal void @tcg_out32(ptr noundef %0, i32 noundef %1) #3 {
  %3 = alloca ptr, align 8
  %4 = alloca i32, align 4
  %5 = alloca ptr, align 8
  store ptr %0, ptr %3, align 8
  store i32 %1, ptr %4, align 4
  call void @llvm.lifetime.start.p0(i64 8, ptr %5) #19
  %6 = load ptr, ptr %3, align 8
  %7 = getelementptr inbounds nuw %struct.TCGContext, ptr %6, i32 0, i32 23
  %8 = load ptr, ptr %7, align 8
  store ptr %8, ptr %5, align 8
  %9 = load ptr, ptr %5, align 8
  %10 = call ptr @memcpy.inline(ptr noundef %9, ptr noundef %4, i64 noundef 4) #19
  %11 = load ptr, ptr %5, align 8
  %12 = getelementptr inbounds i8, ptr %11, i64 4
  %13 = load ptr, ptr %3, align 8
  %14 = getelementptr inbounds nuw %struct.TCGContext, ptr %13, i32 0, i32 23
  store ptr %12, ptr %14, align 8
  call void @llvm.lifetime.end.p0(i64 8, ptr %5) #19
  ret void
}

; Function Attrs: inlinehint nounwind sspstrong uwtable
define internal void @tcg_out8(ptr noundef %0, i8 noundef zeroext %1) #3 {
  %3 = alloca ptr, align 8
  %4 = alloca i8, align 1
  store ptr %0, ptr %3, align 8
  store i8 %1, ptr %4, align 1
  %5 = load i8, ptr %4, align 1
  %6 = load ptr, ptr %3, align 8
  %7 = getelementptr inbounds nuw %struct.TCGContext, ptr %6, i32 0, i32 23
  %8 = load ptr, ptr %7, align 8
  %9 = getelementptr inbounds nuw i8, ptr %8, i32 1
  store ptr %9, ptr %7, align 8
  store i8 %5, ptr %8, align 1
  ret void
}

; Function Attrs: nounwind sspstrong uwtable
define internal void @tcg_out_sib_offset(ptr noundef %0, i32 noundef %1, i32 noundef %2, i32 noundef %3, i32 noundef %4, i64 noundef %5) #0 {
  %7 = alloca ptr, align 8
  %8 = alloca i32, align 4
  %9 = alloca i32, align 4
  %10 = alloca i32, align 4
  %11 = alloca i32, align 4
  %12 = alloca i64, align 8
  %13 = alloca i32, align 4
  %14 = alloca i32, align 4
  %15 = alloca i64, align 8
  %16 = alloca i64, align 8
  %17 = alloca i32, align 4
  store ptr %0, ptr %7, align 8
  store i32 %1, ptr %8, align 4
  store i32 %2, ptr %9, align 4
  store i32 %3, ptr %10, align 4
  store i32 %4, ptr %11, align 4
  store i64 %5, ptr %12, align 8
  call void @llvm.lifetime.start.p0(i64 4, ptr %13) #19
  store i32 0, ptr %13, align 4, !annotation !4
  call void @llvm.lifetime.start.p0(i64 4, ptr %14) #19
  store i32 0, ptr %14, align 4, !annotation !4
  %18 = load i32, ptr %10, align 4
  %19 = icmp slt i32 %18, 0
  br i1 %19, label %20, label %75

20:                                               ; preds = %6
  %21 = load i32, ptr %9, align 4
  %22 = icmp slt i32 %21, 0
  br i1 %22, label %23, label %75

23:                                               ; preds = %20
  call void @llvm.lifetime.start.p0(i64 8, ptr %15) #19
  %24 = load ptr, ptr %7, align 8
  %25 = getelementptr inbounds nuw %struct.TCGContext, ptr %24, i32 0, i32 23
  %26 = load ptr, ptr %25, align 8
  %27 = ptrtoint ptr %26 to i64
  %28 = add i64 %27, 5
  %29 = load i32, ptr %9, align 4
  %30 = xor i32 %29, -1
  %31 = sext i32 %30 to i64
  %32 = add i64 %28, %31
  store i64 %32, ptr %15, align 8
  call void @llvm.lifetime.start.p0(i64 8, ptr %16) #19
  %33 = load i64, ptr %12, align 8
  %34 = load i64, ptr %15, align 8
  %35 = sub i64 %33, %34
  store i64 %35, ptr %16, align 8
  %36 = load i64, ptr %16, align 8
  %37 = load i64, ptr %16, align 8
  %38 = trunc i64 %37 to i32
  %39 = sext i32 %38 to i64
  %40 = icmp eq i64 %36, %39
  br i1 %40, label %41, label %51

41:                                               ; preds = %23
  %42 = load ptr, ptr %7, align 8
  %43 = load i32, ptr %8, align 4
  %44 = and i32 %43, 7
  %45 = shl i32 %44, 3
  %46 = or i32 %45, 5
  %47 = trunc i32 %46 to i8
  call void @tcg_out8(ptr noundef %42, i8 noundef zeroext %47)
  %48 = load ptr, ptr %7, align 8
  %49 = load i64, ptr %16, align 8
  %50 = trunc i64 %49 to i32
  call void @tcg_out32(ptr noundef %48, i32 noundef %50)
  store i32 1, ptr %17, align 4
  br label %72

51:                                               ; preds = %23
  %52 = load i64, ptr %12, align 8
  %53 = load i64, ptr %12, align 8
  %54 = trunc i64 %53 to i32
  %55 = sext i32 %54 to i64
  %56 = icmp eq i64 %52, %55
  br i1 %56, label %57, label %68

57:                                               ; preds = %51
  %58 = load ptr, ptr %7, align 8
  %59 = load i32, ptr %8, align 4
  %60 = and i32 %59, 7
  %61 = shl i32 %60, 3
  %62 = or i32 %61, 4
  %63 = trunc i32 %62 to i8
  call void @tcg_out8(ptr noundef %58, i8 noundef zeroext %63)
  %64 = load ptr, ptr %7, align 8
  call void @tcg_out8(ptr noundef %64, i8 noundef zeroext 37)
  %65 = load ptr, ptr %7, align 8
  %66 = load i64, ptr %12, align 8
  %67 = trunc i64 %66 to i32
  call void @tcg_out32(ptr noundef %65, i32 noundef %67)
  store i32 1, ptr %17, align 4
  br label %72

68:                                               ; preds = %51
  br label %69

69:                                               ; preds = %68
  call void @g_assertion_message_expr(ptr noundef null, ptr noundef @.str.51, i32 noundef 813, ptr noundef @__func__.tcg_out_sib_offset, ptr noundef null) #20
  unreachable

70:                                               ; No predecessors!
  br label %71

71:                                               ; preds = %70
  store i32 0, ptr %17, align 4
  br label %72

72:                                               ; preds = %71, %57, %41
  call void @llvm.lifetime.end.p0(i64 8, ptr %16) #19
  call void @llvm.lifetime.end.p0(i64 8, ptr %15) #19
  %73 = load i32, ptr %17, align 4
  switch i32 %73, label %163 [
    i32 0, label %74
  ]

74:                                               ; preds = %72
  br label %75

75:                                               ; preds = %74, %20, %6
  %76 = load i32, ptr %9, align 4
  %77 = icmp slt i32 %76, 0
  br i1 %77, label %78, label %79

78:                                               ; preds = %75
  store i32 0, ptr %13, align 4
  store i32 4, ptr %14, align 4
  store i32 5, ptr %9, align 4
  br label %97

79:                                               ; preds = %75
  %80 = load i64, ptr %12, align 8
  %81 = icmp eq i64 %80, 0
  br i1 %81, label %82, label %87

82:                                               ; preds = %79
  %83 = load i32, ptr %9, align 4
  %84 = and i32 %83, 7
  %85 = icmp ne i32 %84, 5
  br i1 %85, label %86, label %87

86:                                               ; preds = %82
  store i32 0, ptr %13, align 4
  store i32 0, ptr %14, align 4
  br label %96

87:                                               ; preds = %82, %79
  %88 = load i64, ptr %12, align 8
  %89 = load i64, ptr %12, align 8
  %90 = trunc i64 %89 to i8
  %91 = sext i8 %90 to i64
  %92 = icmp eq i64 %88, %91
  br i1 %92, label %93, label %94

93:                                               ; preds = %87
  store i32 64, ptr %13, align 4
  store i32 1, ptr %14, align 4
  br label %95

94:                                               ; preds = %87
  store i32 128, ptr %13, align 4
  store i32 4, ptr %14, align 4
  br label %95

95:                                               ; preds = %94, %93
  br label %96

96:                                               ; preds = %95, %86
  br label %97

97:                                               ; preds = %96, %78
  %98 = load i32, ptr %10, align 4
  %99 = icmp slt i32 %98, 0
  br i1 %99, label %100, label %115

100:                                              ; preds = %97
  %101 = load i32, ptr %9, align 4
  %102 = and i32 %101, 7
  %103 = icmp ne i32 %102, 4
  br i1 %103, label %104, label %115

104:                                              ; preds = %100
  %105 = load ptr, ptr %7, align 8
  %106 = load i32, ptr %13, align 4
  %107 = load i32, ptr %8, align 4
  %108 = and i32 %107, 7
  %109 = shl i32 %108, 3
  %110 = or i32 %106, %109
  %111 = load i32, ptr %9, align 4
  %112 = and i32 %111, 7
  %113 = or i32 %110, %112
  %114 = trunc i32 %113 to i8
  call void @tcg_out8(ptr noundef %105, i8 noundef zeroext %114)
  br label %147

115:                                              ; preds = %100, %97
  %116 = load i32, ptr %10, align 4
  %117 = icmp slt i32 %116, 0
  br i1 %117, label %118, label %119

118:                                              ; preds = %115
  store i32 4, ptr %10, align 4
  br label %127

119:                                              ; preds = %115
  br label %120

120:                                              ; preds = %119
  %121 = load i32, ptr %10, align 4
  %122 = icmp ne i32 %121, 4
  br i1 %122, label %124, label %123

123:                                              ; preds = %120
  unreachable

124:                                              ; preds = %120
  br label %125

125:                                              ; preds = %124
  br label %126

126:                                              ; preds = %125
  br label %127

127:                                              ; preds = %126, %118
  %128 = load ptr, ptr %7, align 8
  %129 = load i32, ptr %13, align 4
  %130 = load i32, ptr %8, align 4
  %131 = and i32 %130, 7
  %132 = shl i32 %131, 3
  %133 = or i32 %129, %132
  %134 = or i32 %133, 4
  %135 = trunc i32 %134 to i8
  call void @tcg_out8(ptr noundef %128, i8 noundef zeroext %135)
  %136 = load ptr, ptr %7, align 8
  %137 = load i32, ptr %11, align 4
  %138 = shl i32 %137, 6
  %139 = load i32, ptr %10, align 4
  %140 = and i32 %139, 7
  %141 = shl i32 %140, 3
  %142 = or i32 %138, %141
  %143 = load i32, ptr %9, align 4
  %144 = and i32 %143, 7
  %145 = or i32 %142, %144
  %146 = trunc i32 %145 to i8
  call void @tcg_out8(ptr noundef %136, i8 noundef zeroext %146)
  br label %147

147:                                              ; preds = %127, %104
  %148 = load i32, ptr %14, align 4
  %149 = icmp eq i32 %148, 1
  br i1 %149, label %150, label %154

150:                                              ; preds = %147
  %151 = load ptr, ptr %7, align 8
  %152 = load i64, ptr %12, align 8
  %153 = trunc i64 %152 to i8
  call void @tcg_out8(ptr noundef %151, i8 noundef zeroext %153)
  br label %162

154:                                              ; preds = %147
  %155 = load i32, ptr %14, align 4
  %156 = icmp eq i32 %155, 4
  br i1 %156, label %157, label %161

157:                                              ; preds = %154
  %158 = load ptr, ptr %7, align 8
  %159 = load i64, ptr %12, align 8
  %160 = trunc i64 %159 to i32
  call void @tcg_out32(ptr noundef %158, i32 noundef %160)
  br label %161

161:                                              ; preds = %157, %154
  br label %162

162:                                              ; preds = %161, %150
  store i32 0, ptr %17, align 4
  br label %163

163:                                              ; preds = %162, %72
  call void @llvm.lifetime.end.p0(i64 4, ptr %14) #19
  call void @llvm.lifetime.end.p0(i64 4, ptr %13) #19
  %164 = load i32, ptr %17, align 4
  switch i32 %164, label %166 [
    i32 0, label %165
    i32 1, label %165
  ]

165:                                              ; preds = %163, %163
  ret void

166:                                              ; preds = %163
  unreachable
}