; Function Attrs: nounwind sspstrong uwtable
define internal fastcc void @tcg_out_sib_offset(ptr noundef captures(none) %0, i32 noundef %1, i32 noundef %2, i32 noundef %3, i32 noundef %4, i64 noundef %5) unnamed_addr #0 {
  %7 = icmp slt i32 %3, 0
  %8 = and i32 %3, %2
  %or.cond.not = icmp sgt i32 %8, -1
  br i1 %or.cond.not, label %39, label %9

9:                                                ; preds = %6
  %10 = getelementptr inbounds nuw i8, ptr %0, i64 128
  %11 = load ptr, ptr %10, align 8
  %12 = ptrtoint ptr %11 to i64
  %13 = sext i32 %2 to i64
  %.neg57 = add nsw i64 %13, -4
  %.neg58 = add i64 %.neg57, %5
  %14 = sub i64 %.neg58, %12
  %15 = add i64 %14, 2147483648
  %16 = icmp ult i64 %15, 4294967296
  br i1 %16, label %17, label %25

17:                                               ; preds = %9
  %18 = trunc i64 %14 to i32
  %.tr53 = trunc i32 %1 to i8
  %19 = shl i8 %.tr53, 3
  %20 = and i8 %19, 56
  %21 = or disjoint i8 %20, 5
  %22 = getelementptr inbounds nuw i8, ptr %11, i64 1
  store ptr %22, ptr %10, align 8
  store i8 %21, ptr %11, align 1
  %23 = load ptr, ptr %10, align 8
  store i32 %18, ptr %23, align 1
  %24 = getelementptr inbounds nuw i8, ptr %23, i64 4
  store ptr %24, ptr %10, align 8
  br label %91

25:                                               ; preds = %9
  %26 = add i64 %5, 2147483648
  %27 = icmp ult i64 %26, 4294967296
  br i1 %27, label %28, label %38

28:                                               ; preds = %25
  %29 = trunc i64 %5 to i32
  %.tr = trunc i32 %1 to i8
  %30 = shl i8 %.tr, 3
  %31 = and i8 %30, 56
  %32 = or disjoint i8 %31, 4
  %33 = getelementptr inbounds nuw i8, ptr %11, i64 1
  store ptr %33, ptr %10, align 8
  store i8 %32, ptr %11, align 1
  %34 = load ptr, ptr %10, align 8
  %35 = getelementptr inbounds nuw i8, ptr %34, i64 1
  store ptr %35, ptr %10, align 8
  store i8 37, ptr %34, align 1
  %36 = load ptr, ptr %10, align 8
  store i32 %29, ptr %36, align 1
  %37 = getelementptr inbounds nuw i8, ptr %36, i64 4
  store ptr %37, ptr %10, align 8
  br label %91

38:                                               ; preds = %25
  tail call void @g_assertion_message_expr(ptr noundef null, ptr noundef nonnull @.str.51, i32 noundef 813, ptr noundef nonnull @__func__.tcg_out_sib_offset, ptr noundef null) #31
  unreachable

39:                                               ; preds = %6
  %40 = icmp slt i32 %2, 0
  br i1 %40, label %47, label %41

41:                                               ; preds = %39
  %42 = icmp ne i64 %5, 0
  %43 = and i32 %2, 7
  %.not = icmp eq i32 %43, 5
  %or.cond = or i1 %.not, %42
  br i1 %or.cond, label %44, label %47

44:                                               ; preds = %41
  %45 = add i64 %5, 128
  %46 = icmp ult i64 %45, 256
  %. = select i1 %46, i32 64, i32 128
  %not. = xor i1 %46, true
  br label %47

47:                                               ; preds = %44, %41, %39
  %.049 = phi i32 [ 0, %39 ], [ 0, %41 ], [ %., %44 ]
  %48 = phi i1 [ false, %39 ], [ false, %41 ], [ %46, %44 ]
  %49 = phi i1 [ true, %39 ], [ false, %41 ], [ %not., %44 ]
  %.046 = phi i32 [ 5, %39 ], [ %2, %41 ], [ %2, %44 ]
  br i1 %7, label %50, label %.critedge

50:                                               ; preds = %47
  %51 = and i32 %.046, 7
  %.not52 = icmp eq i32 %51, 4
  br i1 %.not52, label %64, label %52

52:                                               ; preds = %50
  %53 = shl i32 %1, 3
  %54 = and i32 %53, 56
  %55 = or disjoint i32 %.049, %54
  %56 = or disjoint i32 %55, %51
  %57 = trunc nuw i32 %56 to i8
  %58 = getelementptr inbounds nuw i8, ptr %0, i64 128
  %59 = load ptr, ptr %58, align 8
  %60 = getelementptr inbounds nuw i8, ptr %59, i64 1
  store ptr %60, ptr %58, align 8
  store i8 %57, ptr %59, align 1
  br label %79

.critedge:                                        ; preds = %47
  %61 = icmp ne i32 %3, 4
  tail call void @llvm.assume(i1 %61)
  %62 = shl i32 %3, 3
  %63 = and i32 %62, 56
  %.pre = and i32 %.046, 7
  br label %64

64:                                               ; preds = %50, %.critedge
  %.pre-phi = phi i32 [ 4, %50 ], [ %.pre, %.critedge ]
  %.047 = phi i32 [ 32, %50 ], [ %63, %.critedge ]
  %65 = shl i32 %1, 3
  %66 = and i32 %65, 56
  %67 = or disjoint i32 %.049, %66
  %68 = trunc nuw i32 %67 to i8
  %69 = or disjoint i8 %68, 4
  %70 = getelementptr inbounds nuw i8, ptr %0, i64 128
  %71 = load ptr, ptr %70, align 8
  %72 = getelementptr inbounds nuw i8, ptr %71, i64 1
  store ptr %72, ptr %70, align 8
  store i8 %69, ptr %71, align 1
  %73 = shl i32 %4, 6
  %74 = or disjoint i32 %.047, %73
  %75 = or disjoint i32 %74, %.pre-phi
  %76 = trunc i32 %75 to i8
  %77 = load ptr, ptr %70, align 8
  %78 = getelementptr inbounds nuw i8, ptr %77, i64 1
  store ptr %78, ptr %70, align 8
  store i8 %76, ptr %77, align 1
  br label %79

79:                                               ; preds = %64, %52
  br i1 %48, label %80, label %85

80:                                               ; preds = %79
  %81 = trunc i64 %5 to i8
  %82 = getelementptr inbounds nuw i8, ptr %0, i64 128
  %83 = load ptr, ptr %82, align 8
  %84 = getelementptr inbounds nuw i8, ptr %83, i64 1
  store ptr %84, ptr %82, align 8
  store i8 %81, ptr %83, align 1
  br label %91

85:                                               ; preds = %79
  br i1 %49, label %86, label %91

86:                                               ; preds = %85
  %87 = trunc i64 %5 to i32
  %88 = getelementptr inbounds nuw i8, ptr %0, i64 128
  %89 = load ptr, ptr %88, align 8
  store i32 %87, ptr %89, align 1
  %90 = getelementptr inbounds nuw i8, ptr %89, i64 4
  store ptr %90, ptr %88, align 8
  br label %91

91:                                               ; preds = %80, %86, %85, %17, %28
  ret void
}